; ModuleID = 'source-C-CXX/42/283.c'
source_filename = "source-C-CXX/42/283.c"
target datalayout = "e-m:e-p270:32:32-p271:32:32-p272:64:64-i64:64-f80:128-n8:16:32:64-S128"
target triple = "x86_64-pc-linux-gnu"

@.str = private unnamed_addr constant [3 x i8] c"%d\00", align 1
@.str.1 = private unnamed_addr constant [7 x i8] c"%d %d\0A\00", align 1

; Function Attrs: nofree nounwind sspstrong uwtable
define dso_local i32 @sushu(i32 %0) local_unnamed_addr #0 {
  %2 = icmp eq i32 %0, 3
  br i1 %2, label %16, label %3

3:                                                ; preds = %1
  %4 = sitofp i32 %0 to double
  %5 = tail call double @sqrt(double %4) #4
  %6 = fcmp ult double %5, 2.000000e+00
  br i1 %6, label %16, label %11

7:                                                ; preds = %11
  %8 = sitofp i32 %15 to double
  %9 = tail call double @sqrt(double %4) #4
  %10 = fcmp ult double %9, %8
  br i1 %10, label %16, label %11, !llvm.loop !5

11:                                               ; preds = %3, %7
  %12 = phi i32 [ %15, %7 ], [ 2, %3 ]
  %13 = srem i32 %0, %12
  %14 = icmp eq i32 %13, 0
  %15 = add nuw nsw i32 %12, 1
  br i1 %14, label %16, label %7

16:                                               ; preds = %11, %7, %3, %1
  %17 = phi i32 [ 1, %1 ], [ 1, %3 ], [ 0, %11 ], [ 1, %7 ]
  ret i32 %17
}

; Function Attrs: argmemonly mustprogress nofree nosync nounwind willreturn
declare void @llvm.lifetime.start.p0i8(i64 immarg, i8* nocapture) #1

; Function Attrs: mustprogress nofree nounwind willreturn
declare double @sqrt(double) local_unnamed_addr #2

; Function Attrs: argmemonly mustprogress nofree nosync nounwind willreturn
declare void @llvm.lifetime.end.p0i8(i64 immarg, i8* nocapture) #1

; Function Attrs: nofree nounwind sspstrong uwtable
define dso_local i32 @main() local_unnamed_addr #0 {
  %1 = alloca i32, align 4
  %2 = bitcast i32* %1 to i8*
  call void @llvm.lifetime.start.p0i8(i64 4, i8* nonnull %2) #4
  %3 = call i32 (i8*, ...) @__isoc99_scanf(i8* getelementptr inbounds ([3 x i8], [3 x i8]* @.str, i64 0, i64 0), i32* nonnull %1)
  %4 = load i32, i32* %1, align 4, !tbaa !7
  %5 = icmp slt i32 %4, 6
  br i1 %5, label %46, label %6

6:                                                ; preds = %0, %41
  %7 = phi i32 [ %42, %41 ], [ 3, %0 ]
  %8 = icmp eq i32 %7, 3
  br i1 %8, label %22, label %9

9:                                                ; preds = %6
  %10 = sitofp i32 %7 to double
  %11 = call double @sqrt(double %10) #4
  %12 = fcmp ult double %11, 2.000000e+00
  br i1 %12, label %22, label %17

13:                                               ; preds = %17
  %14 = sitofp i32 %21 to double
  %15 = call double @sqrt(double %10) #4
  %16 = fcmp ult double %15, %14
  br i1 %16, label %22, label %17, !llvm.loop !5

17:                                               ; preds = %9, %13
  %18 = phi i32 [ %21, %13 ], [ 2, %9 ]
  %19 = urem i32 %7, %18
  %20 = icmp eq i32 %19, 0
  %21 = add nuw nsw i32 %18, 1
  br i1 %20, label %41, label %13

22:                                               ; preds = %13, %6, %9
  %23 = load i32, i32* %1, align 4, !tbaa !7
  %24 = sub nsw i32 %23, %7
  %25 = icmp eq i32 %24, 3
  br i1 %25, label %39, label %26

26:                                               ; preds = %22
  %27 = sitofp i32 %24 to double
  %28 = call double @sqrt(double %27) #4
  %29 = fcmp ult double %28, 2.000000e+00
  br i1 %29, label %39, label %34

30:                                               ; preds = %34
  %31 = sitofp i32 %38 to double
  %32 = call double @sqrt(double %27) #4
  %33 = fcmp ult double %32, %31
  br i1 %33, label %39, label %34, !llvm.loop !5

34:                                               ; preds = %26, %30
  %35 = phi i32 [ %38, %30 ], [ 2, %26 ]
  %36 = srem i32 %24, %35
  %37 = icmp eq i32 %36, 0
  %38 = add nuw nsw i32 %35, 1
  br i1 %37, label %41, label %30

39:                                               ; preds = %30, %22, %26
  %40 = call i32 (i8*, ...) @printf(i8* nonnull dereferenceable(1) getelementptr inbounds ([7 x i8], [7 x i8]* @.str.1, i64 0, i64 0), i32 %7, i32 %24)
  br label %41

41:                                               ; preds = %17, %34, %39
  %42 = add nuw nsw i32 %7, 2
  %43 = load i32, i32* %1, align 4, !tbaa !7
  %44 = sdiv i32 %43, 2
  %45 = icmp sgt i32 %42, %44
  br i1 %45, label %46, label %6, !llvm.loop !11

46:                                               ; preds = %41, %0
  call void @llvm.lifetime.end.p0i8(i64 4, i8* nonnull %2) #4
  ret i32 0
}

; Function Attrs: nofree nounwind
declare noundef i32 @__isoc99_scanf(i8* nocapture noundef readonly, ...) local_unnamed_addr #3

; Function Attrs: nofree nounwind
declare noundef i32 @printf(i8* nocapture noundef readonly, ...) local_unnamed_addr #3


!llvm.module.flags = !{!0, !1, !2, !3}
!llvm.ident = !{!4}

!0 = !{i32 1, !"wchar_size", i32 4}
!1 = !{i32 7, !"PIC Level", i32 2}
!2 = !{i32 7, !"PIE Level", i32 2}
!3 = !{i32 7, !"uwtable", i32 1}
!4 = !{!"clang version 13.0.0"}
!5 = distinct !{!5, !6}
!6 = !{!"llvm.loop.mustprogress"}
!7 = !{!8, !8, i64 0}
!8 = !{!"int", !9, i64 0}
!9 = !{!"omnipotent char", !10, i64 0}
!10 = !{!"Simple C/C++ TBAA"}
!11 = distinct !{!11, !6}
